target datalayout = "e-m:e-p270:32:32-p271:32:32-p272:64:64-i64:64-i128:128-f80:128-n8:16:32:64-S128"
target triple = "x86_64-pc-linux-gnu"

%"class.sls::plugin" = type <{ ptr, ptr, ptr, i32, [4 x i8] }>
%class.app = type { %class.expr, ptr, i32, %struct.app_flags, [0 x ptr] }
%class.expr = type { %class.ast }
%class.ast = type { i32, i32, i32, i32 }
%struct.app_flags = type <{ i16, i8, i8 }>

; Function Attrs: mustprogress nounwind uwtable
define linkonce_odr hidden noundef ptr @_ZNK3app7get_argEj(ptr noundef nonnull align 8 dereferenceable(32) %0, i32 noundef %1) #5 comdat align 2 {
  %3 = alloca ptr, align 8
  %4 = alloca i32, align 4
  store ptr %0, ptr %3, align 8, !tbaa !77
  store i32 %1, ptr %4, align 4, !tbaa !79
  %5 = load ptr, ptr %3, align 8
  %6 = getelementptr inbounds nuw %class.app, ptr %5, i32 0, i32 4
  %7 = load i32, ptr %4, align 4, !tbaa !79
  %8 = zext i32 %7 to i64
  %9 = getelementptr inbounds nuw [0 x ptr], ptr %6, i64 0, i64 %8
  %10 = load ptr, ptr %9, align 8, !tbaa !71
  ret ptr %10
}

; Function Attrs: mustprogress nounwind uwtable
define linkonce_odr hidden noundef i32 @_ZNK3app12get_num_argsEv(ptr noundef nonnull align 8 dereferenceable(32) %0) #5 comdat align 2 {
  %2 = alloca ptr, align 8
  store ptr %0, ptr %2, align 8, !tbaa !77
  %3 = load ptr, ptr %2, align 8
  %4 = getelementptr inbounds nuw %class.app, ptr %3, i32 0, i32 2
  %5 = load i32, ptr %4, align 8, !tbaa !98
  ret i32 %5
}

; Function Attrs: inlinehint mustprogress nounwind uwtable
define linkonce_odr hidden noundef ptr @_Z6to_appP3ast(ptr noundef %0) #6 comdat {
  %2 = alloca ptr, align 8
  store ptr %0, ptr %2, align 8, !tbaa !91
  %3 = load ptr, ptr %2, align 8, !tbaa !91
  ret ptr %3
}

; Function Attrs: mustprogress nounwind uwtable
define linkonce_odr hidden noundef ptr @_ZNK3app8get_declEv(ptr noundef nonnull align 8 dereferenceable(32) %0) #5 comdat align 2 {
  %2 = alloca ptr, align 8
  store ptr %0, ptr %2, align 8, !tbaa !77
  %3 = load ptr, ptr %2, align 8
  %4 = getelementptr inbounds nuw %class.app, ptr %3, i32 0, i32 1
  %5 = load ptr, ptr %4, align 8, !tbaa !93
  ret ptr %5
}

; Function Attrs: mustprogress uwtable
define hidden void @_ZN3sls15datatype_plugin23repair_down_constructorEP3appP4exprS4_(ptr noundef nonnull align 8 dereferenceable(240) %0, ptr noundef %1, ptr noundef %2, ptr noundef %3) #4 align 2 {
  %5 = alloca ptr, align 8
  %6 = alloca ptr, align 8
  %7 = alloca ptr, align 8
  %8 = alloca ptr, align 8
  %9 = alloca i32, align 4
  %10 = alloca i32, align 4
  %11 = alloca ptr, align 8
  %12 = alloca ptr, align 8
  %13 = alloca ptr, align 8
  store ptr %0, ptr %5, align 8, !tbaa !3
  store ptr %1, ptr %6, align 8, !tbaa !77
  store ptr %2, ptr %7, align 8, !tbaa !71
  store ptr %3, ptr %8, align 8, !tbaa !71
  %14 = load ptr, ptr %5, align 8
  %15 = load ptr, ptr %6, align 8, !tbaa !77
  %16 = call noundef ptr @_ZNK3app8get_declEv(ptr noundef nonnull align 8 dereferenceable(32) %15)
  %17 = load ptr, ptr %7, align 8, !tbaa !71
  %18 = call noundef ptr @_Z6to_appP3ast(ptr noundef %17)
  %19 = call noundef ptr @_ZNK3app8get_declEv(ptr noundef nonnull align 8 dereferenceable(32) %18)
  %20 = icmp eq ptr %16, %19
  br i1 %20, label %21, label %57

21:                                               ; preds = %4
  call void @llvm.lifetime.start.p0(i64 4, ptr %9) #3
  store i32 0, ptr %9, align 4, !tbaa !79
  br label %22

22:                                               ; preds = %53, %21
  %23 = load i32, ptr %9, align 4, !tbaa !79
  %24 = load ptr, ptr %6, align 8, !tbaa !77
  %25 = call noundef i32 @_ZNK3app12get_num_argsEv(ptr noundef nonnull align 8 dereferenceable(32) %24)
  %26 = icmp ult i32 %23, %25
  br i1 %26, label %28, label %27

27:                                               ; preds = %22
  store i32 2, ptr %10, align 4
  call void @llvm.lifetime.end.p0(i64 4, ptr %9) #3
  br label %56

28:                                               ; preds = %22
  call void @llvm.lifetime.start.p0(i64 8, ptr %11) #3
  %29 = load ptr, ptr %7, align 8, !tbaa !71
  %30 = call noundef ptr @_Z6to_appP3ast(ptr noundef %29)
  %31 = load i32, ptr %9, align 4, !tbaa !79
  %32 = call noundef ptr @_ZNK3app7get_argEj(ptr noundef nonnull align 8 dereferenceable(32) %30, i32 noundef %31)
  store ptr %32, ptr %11, align 8, !tbaa !71
  call void @llvm.lifetime.start.p0(i64 8, ptr %12) #3
  %33 = load ptr, ptr %8, align 8, !tbaa !71
  %34 = call noundef ptr @_Z6to_appP3ast(ptr noundef %33)
  %35 = load i32, ptr %9, align 4, !tbaa !79
  %36 = call noundef ptr @_ZNK3app7get_argEj(ptr noundef nonnull align 8 dereferenceable(32) %34, i32 noundef %35)
  store ptr %36, ptr %12, align 8, !tbaa !71
  %37 = load ptr, ptr %11, align 8, !tbaa !71
  %38 = load ptr, ptr %12, align 8, !tbaa !71
  %39 = icmp eq ptr %37, %38
  br i1 %39, label %40, label %41

40:                                               ; preds = %28
  store i32 4, ptr %10, align 4
  br label %50

41:                                               ; preds = %28
  call void @llvm.lifetime.start.p0(i64 8, ptr %13) #3
  %42 = load ptr, ptr %6, align 8, !tbaa !77
  %43 = load i32, ptr %9, align 4, !tbaa !79
  %44 = call noundef ptr @_ZNK3app7get_argEj(ptr noundef nonnull align 8 dereferenceable(32) %42, i32 noundef %43)
  store ptr %44, ptr %13, align 8, !tbaa !71
  %45 = load ptr, ptr %13, align 8, !tbaa !71
  %46 = load ptr, ptr %11, align 8, !tbaa !71
  call void @_ZN3sls15datatype_plugin9set_eval0EP4exprS2_(ptr noundef nonnull align 8 dereferenceable(240) %14, ptr noundef %45, ptr noundef %46)
  %47 = getelementptr inbounds nuw %"class.sls::plugin", ptr %14, i32 0, i32 1
  %48 = load ptr, ptr %47, align 8, !tbaa !73
  %49 = load ptr, ptr %13, align 8, !tbaa !71
  call void @_ZN3sls7context12new_value_ehEP4expr(ptr noundef nonnull align 8 dereferenceable(321) %48, ptr noundef %49)
  call void @llvm.lifetime.end.p0(i64 8, ptr %13) #3
  store i32 0, ptr %10, align 4
  br label %50

50:                                               ; preds = %41, %40
  call void @llvm.lifetime.end.p0(i64 8, ptr %12) #3
  call void @llvm.lifetime.end.p0(i64 8, ptr %11) #3
  %51 = load i32, ptr %10, align 4
  switch i32 %51, label %58 [
    i32 0, label %52
    i32 4, label %53
  ]

52:                                               ; preds = %50
  br label %53

53:                                               ; preds = %52, %50
  %54 = load i32, ptr %9, align 4, !tbaa !79
  %55 = add i32 %54, 1
  store i32 %55, ptr %9, align 4, !tbaa !79
  br label %22, !llvm.loop !293

56:                                               ; preds = %27
  br label %57

57:                                               ; preds = %56, %4
  ret void

58:                                               ; preds = %50
  unreachable
}