; Function Attrs: mustprogress uwtable
define hidden void @_ZN3sls15datatype_plugin23repair_down_constructorEP3appP4exprS4_(ptr noundef nonnull align 8 dereferenceable(240) %0, ptr noundef readonly captures(none) %1, ptr noundef readonly captures(none) %2, ptr noundef readonly captures(none) %3) local_unnamed_addr #3 align 2 {
  %5 = getelementptr inbounds nuw i8, ptr %1, i64 16
  %6 = load ptr, ptr %5, align 8, !tbaa !120
  %7 = getelementptr inbounds nuw i8, ptr %2, i64 16
  %8 = load ptr, ptr %7, align 8, !tbaa !120
  %9 = icmp eq ptr %6, %8
  br i1 %9, label %.preheader, label %.loopexit

.preheader:                                       ; preds = %4
  %10 = getelementptr inbounds nuw i8, ptr %1, i64 24
  %11 = load i32, ptr %10, align 8, !tbaa !134
  %.not = icmp eq i32 %11, 0
  br i1 %.not, label %.loopexit, label %.lr.ph

.lr.ph:                                           ; preds = %.preheader
  %12 = getelementptr inbounds nuw i8, ptr %2, i64 32
  %13 = getelementptr inbounds nuw i8, ptr %3, i64 32
  %14 = getelementptr inbounds nuw i8, ptr %1, i64 32
  %15 = getelementptr inbounds nuw i8, ptr %0, i64 8
  br label %16

16:                                               ; preds = %.lr.ph, %27
  %17 = phi i32 [ %11, %.lr.ph ], [ %28, %27 ]
  %indvars.iv = phi i64 [ 0, %.lr.ph ], [ %indvars.iv.next, %27 ]
  %18 = getelementptr inbounds nuw [0 x ptr], ptr %12, i64 0, i64 %indvars.iv
  %19 = load ptr, ptr %18, align 8, !tbaa !85
  %20 = getelementptr inbounds nuw [0 x ptr], ptr %13, i64 0, i64 %indvars.iv
  %21 = load ptr, ptr %20, align 8, !tbaa !85
  %22 = icmp eq ptr %19, %21
  br i1 %22, label %27, label %23

23:                                               ; preds = %16
  %24 = getelementptr inbounds nuw [0 x ptr], ptr %14, i64 0, i64 %indvars.iv
  %25 = load ptr, ptr %24, align 8, !tbaa !85
  tail call void @_ZN3sls15datatype_plugin9set_eval0EP4exprS2_(ptr noundef nonnull align 8 dereferenceable(240) %0, ptr noundef %25, ptr noundef %19)
  %26 = load ptr, ptr %15, align 8, !tbaa !92
  tail call void @_ZN3sls7context12new_value_ehEP4expr(ptr noundef nonnull align 8 dereferenceable(321) %26, ptr noundef nonnull %25)
  %.pre = load i32, ptr %10, align 8, !tbaa !134
  br label %27

27:                                               ; preds = %16, %23
  %28 = phi i32 [ %17, %16 ], [ %.pre, %23 ]
  %indvars.iv.next = add nuw nsw i64 %indvars.iv, 1
  %29 = zext i32 %28 to i64
  %30 = icmp samesign ult i64 %indvars.iv.next, %29
  br i1 %30, label %16, label %.loopexit, !llvm.loop !281

.loopexit:                                        ; preds = %27, %.preheader, %4
  ret void
}